; Function Attrs: mustprogress uwtable
define noundef double @_ZNK8QuantLib23AnalyticPDFHestonEngine3cdfEdd(ptr nocapture noundef nonnull readonly align 8 dereferenceable(384) %this, double noundef %s, double noundef %t) local_unnamed_addr #7 align 2 personality ptr @__gxx_personality_v0 {
entry:
  %ref.tmp = alloca %"class.QuantLib::HestonRNDCalculator", align 8
  %agg.tmp = alloca %"class.boost::shared_ptr.34", align 8
  %call = tail call double @log(double noundef %s) #26, !tbaa !105
  call void @llvm.lifetime.start.p0(i64 48, ptr nonnull %ref.tmp) #26
  %model_ = getelementptr inbounds nuw i8, ptr %this, i64 368
  %0 = load ptr, ptr %model_, align 8, !tbaa !69
  %cmp.not.i = icmp eq ptr %0, null
  br i1 %cmp.not.i, label %cond.false.i, label %_ZNK5boost10shared_ptrIN8QuantLib11HestonModelEEptEv.exit, !prof !80

cond.false.i:                                     ; preds = %entry
  tail call void @_ZN5boost16assertion_failedEPKcS1_S1_l(ptr noundef nonnull @.str.11, ptr noundef nonnull @__PRETTY_FUNCTION__._ZNK5boost10shared_ptrIN8QuantLib11HestonModelEEptEv, ptr noundef nonnull @.str.12, i64 noundef 784)
  %.pre.i = load ptr, ptr %model_, align 8, !tbaa !69
  br label %_ZNK5boost10shared_ptrIN8QuantLib11HestonModelEEptEv.exit

_ZNK5boost10shared_ptrIN8QuantLib11HestonModelEEptEv.exit: ; preds = %entry, %cond.false.i
  %1 = phi ptr [ %0, %entry ], [ %.pre.i, %cond.false.i ]
  tail call void @llvm.experimental.noalias.scope.decl(metadata !121)
  %process_.i = getelementptr inbounds nuw i8, ptr %1, i64 80
  %2 = load ptr, ptr %process_.i, align 8, !tbaa !91, !noalias !121
  store ptr %2, ptr %agg.tmp, align 8, !tbaa !91, !alias.scope !121
  %pn.i.i = getelementptr inbounds nuw i8, ptr %agg.tmp, i64 8
  %pn3.i.i = getelementptr inbounds nuw i8, ptr %1, i64 88
  %3 = load ptr, ptr %pn3.i.i, align 8, !tbaa !37, !noalias !121
  store ptr %3, ptr %pn.i.i, align 8, !tbaa !37, !alias.scope !121
  %cmp.not.i.i.i = icmp eq ptr %3, null
  br i1 %cmp.not.i.i.i, label %_ZNK8QuantLib11HestonModel7processEv.exit, label %if.then.i.i.i

if.then.i.i.i:                                    ; preds = %_ZNK5boost10shared_ptrIN8QuantLib11HestonModelEEptEv.exit
  %use_count_.i.i.i.i = getelementptr inbounds nuw i8, ptr %3, i64 8
  %4 = atomicrmw add ptr %use_count_.i.i.i.i, i32 1 monotonic, align 4, !noalias !121
  br label %_ZNK8QuantLib11HestonModel7processEv.exit

_ZNK8QuantLib11HestonModel7processEv.exit:        ; preds = %_ZNK5boost10shared_ptrIN8QuantLib11HestonModelEEptEv.exit, %if.then.i.i.i
  %integrationEps_ = getelementptr inbounds nuw i8, ptr %this, i64 360
  %5 = load double, ptr %integrationEps_, align 8, !tbaa !68
  %maxIntegrationIterations_ = getelementptr inbounds nuw i8, ptr %this, i64 352
  %6 = load i64, ptr %maxIntegrationIterations_, align 8, !tbaa !39
  invoke void @_ZN8QuantLib19HestonRNDCalculatorC1EN5boost10shared_ptrINS_13HestonProcessEEEdm(ptr noundef nonnull align 8 dereferenceable(48) %ref.tmp, ptr noundef nonnull %agg.tmp, double noundef %5, i64 noundef %6)
          to label %invoke.cont unwind label %lpad

invoke.cont:                                      ; preds = %_ZNK8QuantLib11HestonModel7processEv.exit
  %call5 = invoke noundef double @_ZNK8QuantLib19HestonRNDCalculator3cdfEdd(ptr noundef nonnull align 8 dereferenceable(48) %ref.tmp, double noundef %call, double noundef %t)
          to label %invoke.cont4 unwind label %lpad3

invoke.cont4:                                     ; preds = %invoke.cont
  store ptr getelementptr inbounds inrange(-16, 40) (i8, ptr @_ZTVN8QuantLib19HestonRNDCalculatorE, i64 16), ptr %ref.tmp, align 8, !tbaa !35
  %pn.i.i2 = getelementptr inbounds nuw i8, ptr %ref.tmp, i64 16
  %7 = load ptr, ptr %pn.i.i2, align 8, !tbaa !37
  %cmp.not.i.i.i3 = icmp eq ptr %7, null
  br i1 %cmp.not.i.i.i3, label %_ZN8QuantLib19HestonRNDCalculatorD2Ev.exit, label %if.then.i.i.i4

if.then.i.i.i4:                                   ; preds = %invoke.cont4
  %use_count_.i.i.i.i5 = getelementptr inbounds nuw i8, ptr %7, i64 8
  %8 = atomicrmw sub ptr %use_count_.i.i.i.i5, i32 1 acq_rel, align 4
  %cmp.i.i.i.i = icmp eq i32 %8, 1
  br i1 %cmp.i.i.i.i, label %if.then.i.i.i.i, label %_ZN8QuantLib19HestonRNDCalculatorD2Ev.exit

if.then.i.i.i.i:                                  ; preds = %if.then.i.i.i4
  %vtable.i.i.i.i = load ptr, ptr %7, align 8, !tbaa !35
  %vfn.i.i.i.i = getelementptr inbounds i8, ptr %vtable.i.i.i.i, i64 16
  %9 = load ptr, ptr %vfn.i.i.i.i, align 8
  invoke void %9(ptr noundef nonnull align 8 dereferenceable(16) %7)
          to label %.noexc.i.i.i unwind label %terminate.lpad.i.i.i

.noexc.i.i.i:                                     ; preds = %if.then.i.i.i.i
  %weak_count_.i.i.i.i.i = getelementptr inbounds nuw i8, ptr %7, i64 12
  %10 = atomicrmw sub ptr %weak_count_.i.i.i.i.i, i32 1 acq_rel, align 4
  %cmp.i.i.i.i.i = icmp eq i32 %10, 1
  br i1 %cmp.i.i.i.i.i, label %if.then.i.i.i.i.i, label %_ZN8QuantLib19HestonRNDCalculatorD2Ev.exit

if.then.i.i.i.i.i:                                ; preds = %.noexc.i.i.i
  %vtable.i.i.i.i.i = load ptr, ptr %7, align 8, !tbaa !35
  %vfn.i.i.i.i.i = getelementptr inbounds i8, ptr %vtable.i.i.i.i.i, i64 24
  %11 = load ptr, ptr %vfn.i.i.i.i.i, align 8
  invoke void %11(ptr noundef nonnull align 8 dereferenceable(16) %7)
          to label %_ZN8QuantLib19HestonRNDCalculatorD2Ev.exit unwind label %terminate.lpad.i.i.i

terminate.lpad.i.i.i:                             ; preds = %if.then.i.i.i.i.i, %if.then.i.i.i.i
  %12 = landingpad { ptr, i32 }
          catch ptr null
  %13 = extractvalue { ptr, i32 } %12, 0
  call void @__clang_call_terminate(ptr %13) #27
  unreachable

_ZN8QuantLib19HestonRNDCalculatorD2Ev.exit:       ; preds = %invoke.cont4, %if.then.i.i.i4, %.noexc.i.i.i, %if.then.i.i.i.i.i
  %14 = load ptr, ptr %pn.i.i, align 8, !tbaa !37
  %cmp.not.i.i = icmp eq ptr %14, null
  br i1 %cmp.not.i.i, label %_ZN5boost10shared_ptrIN8QuantLib13HestonProcessEED2Ev.exit, label %if.then.i.i

if.then.i.i:                                      ; preds = %_ZN8QuantLib19HestonRNDCalculatorD2Ev.exit
  %use_count_.i.i.i = getelementptr inbounds nuw i8, ptr %14, i64 8
  %15 = atomicrmw sub ptr %use_count_.i.i.i, i32 1 acq_rel, align 4
  %cmp.i.i.i = icmp eq i32 %15, 1
  br i1 %cmp.i.i.i, label %if.then.i.i.i6, label %_ZN5boost10shared_ptrIN8QuantLib13HestonProcessEED2Ev.exit

if.then.i.i.i6:                                   ; preds = %if.then.i.i
  %vtable.i.i.i = load ptr, ptr %14, align 8, !tbaa !35
  %vfn.i.i.i = getelementptr inbounds i8, ptr %vtable.i.i.i, i64 16
  %16 = load ptr, ptr %vfn.i.i.i, align 8
  invoke void %16(ptr noundef nonnull align 8 dereferenceable(16) %14)
          to label %.noexc.i.i unwind label %terminate.lpad.i.i

.noexc.i.i:                                       ; preds = %if.then.i.i.i6
  %weak_count_.i.i.i.i = getelementptr inbounds nuw i8, ptr %14, i64 12
  %17 = atomicrmw sub ptr %weak_count_.i.i.i.i, i32 1 acq_rel, align 4
  %cmp.i.i.i.i7 = icmp eq i32 %17, 1
  br i1 %cmp.i.i.i.i7, label %if.then.i.i.i.i8, label %_ZN5boost10shared_ptrIN8QuantLib13HestonProcessEED2Ev.exit

if.then.i.i.i.i8:                                 ; preds = %.noexc.i.i
  %vtable.i.i.i.i9 = load ptr, ptr %14, align 8, !tbaa !35
  %vfn.i.i.i.i10 = getelementptr inbounds i8, ptr %vtable.i.i.i.i9, i64 24
  %18 = load ptr, ptr %vfn.i.i.i.i10, align 8
  invoke void %18(ptr noundef nonnull align 8 dereferenceable(16) %14)
          to label %_ZN5boost10shared_ptrIN8QuantLib13HestonProcessEED2Ev.exit unwind label %terminate.lpad.i.i

terminate.lpad.i.i:                               ; preds = %if.then.i.i.i.i8, %if.then.i.i.i6
  %19 = landingpad { ptr, i32 }
          catch ptr null
  %20 = extractvalue { ptr, i32 } %19, 0
  call void @__clang_call_terminate(ptr %20) #27
  unreachable

_ZN5boost10shared_ptrIN8QuantLib13HestonProcessEED2Ev.exit: ; preds = %_ZN8QuantLib19HestonRNDCalculatorD2Ev.exit, %if.then.i.i, %.noexc.i.i, %if.then.i.i.i.i8
  call void @llvm.lifetime.end.p0(i64 48, ptr nonnull %ref.tmp) #26
  ret double %call5

lpad:                                             ; preds = %_ZNK8QuantLib11HestonModel7processEv.exit
  %21 = landingpad { ptr, i32 }
          cleanup
  br label %ehcleanup

lpad3:                                            ; preds = %invoke.cont
  %22 = landingpad { ptr, i32 }
          cleanup
  call void @_ZN8QuantLib19HestonRNDCalculatorD2Ev(ptr noundef nonnull align 8 dereferenceable(48) %ref.tmp) #26
  br label %ehcleanup

ehcleanup:                                        ; preds = %lpad3, %lpad
  %.pn = phi { ptr, i32 } [ %22, %lpad3 ], [ %21, %lpad ]
  call void @_ZN5boost10shared_ptrIN8QuantLib13HestonProcessEED2Ev(ptr noundef nonnull align 8 dereferenceable(16) %agg.tmp) #26
  call void @llvm.lifetime.end.p0(i64 48, ptr nonnull %ref.tmp) #26
  resume { ptr, i32 } %.pn
}